; Function Attrs: mustprogress uwtable
define void @_ZN3gmx26TrajectoryAnalysisSettingsC2Ev(ptr nocapture noundef nonnull writeonly align 8 dereferenceable(8) %0) unnamed_addr #0 align 2 personality ptr @__gxx_personality_v0 {
  %2 = tail call noalias noundef nonnull dereferenceable(48) ptr @_Znwm(i64 noundef 48) #10
  store i32 1, ptr %2, align 8
  %3 = getelementptr inbounds i8, ptr %2, i64 8
  invoke void @_ZN3gmx24AnalysisDataPlotSettingsC1Ev(ptr noundef nonnull align 8 dereferenceable(16) %3)
          to label %4 unwind label %10

4:                                                ; preds = %1
  %5 = getelementptr inbounds i8, ptr %2, i64 24
  store i64 0, ptr %5, align 8
  %6 = getelementptr inbounds i8, ptr %2, i64 32
  %7 = getelementptr inbounds i8, ptr %2, i64 36
  store i8 1, ptr %7, align 4
  %8 = getelementptr inbounds i8, ptr %2, i64 37
  store i8 1, ptr %8, align 1
  %9 = getelementptr inbounds i8, ptr %2, i64 40
  store ptr null, ptr %9, align 8
  store ptr %2, ptr %0, align 8
  store i32 2, ptr %6, align 8
  ret void

10:                                               ; preds = %1
  %11 = landingpad { ptr, i32 }
          cleanup
  tail call void @_ZdlPv(ptr noundef nonnull %2) #11
  resume { ptr, i32 } %11
}